; Function Attrs: nounwind uwtable
define internal fastcc noundef ptr @MJFillInner(ptr noundef readonly captures(none) %0) unnamed_addr #0 {
  %2 = alloca i8, align 1
  %3 = alloca i8, align 1
  %4 = getelementptr inbounds nuw i8, ptr %0, i64 128
  %5 = load ptr, ptr %4, align 8
  %6 = getelementptr inbounds nuw i8, ptr %0, i64 64
  %7 = load ptr, ptr %6, align 8
  %8 = getelementptr inbounds nuw i8, ptr %5, i64 40
  %9 = load ptr, ptr %8, align 8
  tail call void @MemoryContextReset(ptr noundef %9) #7
  %10 = getelementptr inbounds nuw i8, ptr %0, i64 272
  %11 = load ptr, ptr %10, align 8
  %12 = getelementptr inbounds nuw i8, ptr %5, i64 24
  store ptr %11, ptr %12, align 8
  %13 = getelementptr inbounds nuw i8, ptr %0, i64 256
  %14 = load ptr, ptr %13, align 8
  %15 = getelementptr inbounds nuw i8, ptr %5, i64 16
  store ptr %14, ptr %15, align 8
  call void @llvm.lifetime.start.p0(i64 1, ptr nonnull %3) #7
  %16 = icmp eq ptr %7, null
  br i1 %16, label %ExecQual.exit.thread, label %ExecQual.exit

ExecQual.exit.thread:                             ; preds = %1
  call void @llvm.lifetime.end.p0(i64 1, ptr nonnull %3) #7
  br label %22

ExecQual.exit:                                    ; preds = %1
  %17 = load ptr, ptr %8, align 8
  %18 = load ptr, ptr @CurrentMemoryContext, align 8
  store ptr %17, ptr @CurrentMemoryContext, align 8
  %19 = getelementptr inbounds nuw i8, ptr %7, i64 32
  %20 = load ptr, ptr %19, align 8
  %21 = call i64 %20(ptr noundef nonnull %7, ptr noundef nonnull %5, ptr noundef nonnull %3) #7
  store ptr %18, ptr @CurrentMemoryContext, align 8
  %.not15 = icmp eq i64 %21, 0
  call void @llvm.lifetime.end.p0(i64 1, ptr nonnull %3) #7
  br i1 %.not15, label %48, label %22

22:                                               ; preds = %ExecQual.exit.thread, %ExecQual.exit
  %23 = getelementptr inbounds nuw i8, ptr %0, i64 136
  %24 = load ptr, ptr %23, align 8
  %25 = getelementptr inbounds nuw i8, ptr %24, i64 128
  %26 = load ptr, ptr %25, align 8
  %27 = getelementptr inbounds nuw i8, ptr %24, i64 8
  %28 = getelementptr inbounds nuw i8, ptr %24, i64 24
  %29 = load ptr, ptr %28, align 8
  call void @llvm.lifetime.start.p0(i64 1, ptr nonnull %2) #7
  %30 = getelementptr inbounds nuw i8, ptr %29, i64 8
  %31 = load ptr, ptr %30, align 8
  %32 = getelementptr inbounds nuw i8, ptr %31, i64 24
  %33 = load ptr, ptr %32, align 8
  call void %33(ptr noundef %29) #7
  %34 = getelementptr inbounds nuw i8, ptr %26, i64 40
  %35 = load ptr, ptr %34, align 8
  %36 = load ptr, ptr @CurrentMemoryContext, align 8
  store ptr %35, ptr @CurrentMemoryContext, align 8
  %37 = getelementptr inbounds nuw i8, ptr %24, i64 40
  %38 = load ptr, ptr %37, align 8
  %39 = call i64 %38(ptr noundef nonnull %27, ptr noundef %26, ptr noundef nonnull %2) #7
  store ptr %36, ptr @CurrentMemoryContext, align 8
  %40 = getelementptr inbounds nuw i8, ptr %29, i64 4
  %41 = load i16, ptr %40, align 4
  %42 = and i16 %41, -3
  store i16 %42, ptr %40, align 4
  %43 = getelementptr inbounds nuw i8, ptr %29, i64 16
  %44 = load ptr, ptr %43, align 8
  %45 = load i32, ptr %44, align 8
  %46 = trunc i32 %45 to i16
  %47 = getelementptr inbounds nuw i8, ptr %29, i64 6
  store i16 %46, ptr %47, align 2
  call void @llvm.lifetime.end.p0(i64 1, ptr nonnull %2) #7
  br label %55

48:                                               ; preds = %ExecQual.exit
  %49 = getelementptr inbounds nuw i8, ptr %0, i64 40
  %50 = load ptr, ptr %49, align 8
  %.not = icmp eq ptr %50, null
  br i1 %.not, label %55, label %51

51:                                               ; preds = %48
  %52 = getelementptr inbounds nuw i8, ptr %50, i64 248
  %53 = load double, ptr %52, align 8
  %54 = fadd double %53, 1.000000e+00
  store double %54, ptr %52, align 8
  br label %55

55:                                               ; preds = %51, %48, %22
  %.0 = phi ptr [ %29, %22 ], [ null, %48 ], [ null, %51 ]
  ret ptr %.0
}